target datalayout = "e-m:e-p270:32:32-p271:32:32-p272:64:64-i64:64-i128:128-f80:128-n8:16:32:64-S128"
target triple = "x86_64-pc-linux-gnu"

; Function Attrs: nounwind uwtable
define internal i32 @jdk_trust(ptr noundef %0, ptr noundef %1) #0 {
  %3 = alloca i32, align 4
  %4 = alloca ptr, align 8
  %5 = alloca ptr, align 8
  %6 = alloca ptr, align 8
  %7 = alloca ptr, align 8
  %8 = alloca i32, align 4
  store ptr %0, ptr %4, align 8, !tbaa !62
  store ptr %1, ptr %5, align 8, !tbaa !64
  call void @llvm.lifetime.start.p0(i64 8, ptr %6) #6
  store ptr null, ptr %6, align 8, !tbaa !65
  call void @llvm.lifetime.start.p0(i64 8, ptr %7) #6
  store ptr null, ptr %7, align 8, !tbaa !67
  %9 = load ptr, ptr %5, align 8, !tbaa !64
  %10 = icmp eq ptr %9, null
  br i1 %10, label %11, label %12

11:                                               ; preds = %2
  store i32 1, ptr %3, align 4
  store i32 1, ptr %8, align 4
  br label %22

12:                                               ; preds = %2
  %13 = load ptr, ptr %4, align 8, !tbaa !62
  %14 = call ptr @PKCS12_SAFEBAG_get0_attrs(ptr noundef %13)
  store ptr %14, ptr %6, align 8, !tbaa !65
  %15 = load ptr, ptr %5, align 8, !tbaa !64
  %16 = call ptr @X509_ATTRIBUTE_create(i32 noundef 1283, i32 noundef 6, ptr noundef %15)
  store ptr %16, ptr %7, align 8, !tbaa !67
  %17 = load ptr, ptr %7, align 8, !tbaa !67
  %18 = call ptr @X509at_add1_attr(ptr noundef %6, ptr noundef %17)
  %19 = load ptr, ptr %4, align 8, !tbaa !62
  %20 = load ptr, ptr %6, align 8, !tbaa !65
  call void @PKCS12_SAFEBAG_set0_attrs(ptr noundef %19, ptr noundef %20)
  %21 = load ptr, ptr %7, align 8, !tbaa !67
  call void @X509_ATTRIBUTE_free(ptr noundef %21)
  store i32 1, ptr %3, align 4
  store i32 1, ptr %8, align 4
  br label %22

22:                                               ; preds = %12, %11
  call void @llvm.lifetime.end.p0(i64 8, ptr %7) #6
  call void @llvm.lifetime.end.p0(i64 8, ptr %6) #6
  %23 = load i32, ptr %3, align 4
  ret i32 %23
}