; Function Attrs: nounwind uwtable
define internal noundef i32 @jdk_trust(ptr noundef %0, ptr noundef %1) #0 {
  %3 = alloca ptr, align 8
  call void @llvm.lifetime.start.p0(i64 8, ptr nonnull %3) #6
  %4 = icmp eq ptr %1, null
  br i1 %4, label %10, label %5

5:                                                ; preds = %2
  %6 = tail call ptr @PKCS12_SAFEBAG_get0_attrs(ptr noundef %0) #6
  store ptr %6, ptr %3, align 8, !tbaa !38
  %7 = tail call ptr @X509_ATTRIBUTE_create(i32 noundef 1283, i32 noundef 6, ptr noundef nonnull %1) #6
  %8 = call ptr @X509at_add1_attr(ptr noundef nonnull %3, ptr noundef %7) #6
  %9 = load ptr, ptr %3, align 8, !tbaa !38
  call void @PKCS12_SAFEBAG_set0_attrs(ptr noundef %0, ptr noundef %9) #6
  call void @X509_ATTRIBUTE_free(ptr noundef %7) #6
  br label %10

10:                                               ; preds = %2, %5
  call void @llvm.lifetime.end.p0(i64 8, ptr nonnull %3) #6
  ret i32 1
}